; Function Attrs: mustprogress uwtable
define void @_ZN11OpenImageIO6v3_1_07Strutil8to_upperERNSt7__cxx1112basic_stringIcSt11char_traitsIcESaIcEEE(ptr noundef nonnull readonly align 8 captures(none) dereferenceable(32) %0) local_unnamed_addr #6 {
  %2 = tail call noundef nonnull align 8 dereferenceable(8) ptr @_ZNSt6locale7classicEv()
  %3 = load ptr, ptr %0, align 8, !tbaa !90
  %4 = getelementptr inbounds nuw i8, ptr %0, i64 8
  %5 = load i64, ptr %4, align 8, !tbaa !87
  %6 = getelementptr inbounds nuw i8, ptr %3, i64 %5
  %.not7.i = icmp samesign eq i64 %5, 0
  br i1 %.not7.i, label %"_ZSt9transformIN9__gnu_cxx17__normal_iteratorIPKcNSt7__cxx1112basic_stringIcSt11char_traitsIcESaIcEEEEENS1_IPcS9_EEZN11OpenImageIO6v3_1_07Strutil8to_upperERS9_E3$_0ET0_T_SJ_SI_T1_.exit", label %.lr.ph.i

.lr.ph.i:                                         ; preds = %1, %.lr.ph.i
  %.sroa.04.09.i = phi ptr [ %13, %.lr.ph.i ], [ %3, %1 ]
  %7 = load i8, ptr %.sroa.04.09.i, align 1, !tbaa !3
  %8 = tail call noundef nonnull align 8 dereferenceable(570) ptr @_ZSt9use_facetISt5ctypeIcEERKT_RKSt6locale(ptr noundef nonnull align 8 dereferenceable(8) %2)
  %9 = load ptr, ptr %8, align 8, !tbaa !68
  %10 = getelementptr inbounds nuw i8, ptr %9, i64 16
  %11 = load ptr, ptr %10, align 8
  %12 = tail call noundef signext i8 %11(ptr noundef nonnull align 8 dereferenceable(570) %8, i8 noundef signext %7)
  store i8 %12, ptr %.sroa.04.09.i, align 1, !tbaa !3
  %13 = getelementptr i8, ptr %.sroa.04.09.i, i64 1
  %.not.i = icmp eq ptr %13, %6
  br i1 %.not.i, label %"_ZSt9transformIN9__gnu_cxx17__normal_iteratorIPKcNSt7__cxx1112basic_stringIcSt11char_traitsIcESaIcEEEEENS1_IPcS9_EEZN11OpenImageIO6v3_1_07Strutil8to_upperERS9_E3$_0ET0_T_SJ_SI_T1_.exit", label %.lr.ph.i, !llvm.loop !263

"_ZSt9transformIN9__gnu_cxx17__normal_iteratorIPKcNSt7__cxx1112basic_stringIcSt11char_traitsIcESaIcEEEEENS1_IPcS9_EEZN11OpenImageIO6v3_1_07Strutil8to_upperERS9_E3$_0ET0_T_SJ_SI_T1_.exit": ; preds = %.lr.ph.i, %1
  ret void
}